; ModuleID = '42/596.c'
source_filename = "42/596.c"
target datalayout = "e-m:e-p270:32:32-p271:32:32-p272:64:64-i64:64-f80:128-n8:16:32:64-S128"
target triple = "x86_64-pc-linux-gnu"

@.str = private unnamed_addr constant [3 x i8] c"%d\00", align 1
@.str.1 = private unnamed_addr constant [4 x i8] c"%d \00", align 1
@.str.2 = private unnamed_addr constant [4 x i8] c" %d\00", align 1

; Function Attrs: noinline nounwind uwtable
define dso_local void @main() #0 {
  %1 = alloca i32, align 4
  %2 = alloca i32, align 4
  %3 = alloca i32, align 4
  %4 = alloca [100000 x i32], align 16
  %5 = alloca i32*, align 8
  %6 = alloca i32*, align 8
  %7 = call i32 (i8*, ...) @__isoc99_scanf(i8* getelementptr inbounds ([3 x i8], [3 x i8]* @.str, i64 0, i64 0), i32* %1)
  store i32 0, i32* %2, align 4
  br label %8

8:                                                ; preds = %18, %0
  %9 = load i32, i32* %2, align 4
  %10 = load i32, i32* %1, align 4
  %11 = sub nsw i32 %10, 1
  %12 = icmp slt i32 %9, %11
  br i1 %12, label %13, label %21

13:                                               ; preds = %8
  %14 = load i32, i32* %2, align 4
  %15 = sext i32 %14 to i64
  %16 = getelementptr inbounds [100000 x i32], [100000 x i32]* %4, i64 0, i64 %15
  %17 = call i32 (i8*, ...) @__isoc99_scanf(i8* getelementptr inbounds ([4 x i8], [4 x i8]* @.str.1, i64 0, i64 0), i32* %16)
  br label %18

18:                                               ; preds = %13
  %19 = load i32, i32* %2, align 4
  %20 = add nsw i32 %19, 1
  store i32 %20, i32* %2, align 4
  br label %8

21:                                               ; preds = %8
  %22 = load i32, i32* %1, align 4
  %23 = sub nsw i32 %22, 1
  %24 = sext i32 %23 to i64
  %25 = getelementptr inbounds [100000 x i32], [100000 x i32]* %4, i64 0, i64 %24
  %26 = call i32 (i8*, ...) @__isoc99_scanf(i8* getelementptr inbounds ([3 x i8], [3 x i8]* @.str, i64 0, i64 0), i32* %25)
  %27 = call i32 (i8*, ...) @__isoc99_scanf(i8* getelementptr inbounds ([3 x i8], [3 x i8]* @.str, i64 0, i64 0), i32* %3)
  %28 = getelementptr inbounds [100000 x i32], [100000 x i32]* %4, i64 0, i64 0
  store i32* %28, i32** %5, align 8
  store i32 0, i32* %2, align 4
  br label %29

29:                                               ; preds = %63, %21
  %30 = load i32, i32* %2, align 4
  %31 = load i32, i32* %1, align 4
  %32 = icmp slt i32 %30, %31
  br i1 %32, label %33, label %68

33:                                               ; preds = %29
  %34 = load i32*, i32** %5, align 8
  %35 = load i32, i32* %34, align 4
  %36 = load i32, i32* %3, align 4
  %37 = icmp eq i32 %35, %36
  br i1 %37, label %38, label %62

38:                                               ; preds = %33
  %39 = load i32*, i32** %5, align 8
  store i32* %39, i32** %6, align 8
  br label %40

40:                                               ; preds = %52, %38
  %41 = load i32*, i32** %6, align 8
  %42 = getelementptr inbounds [100000 x i32], [100000 x i32]* %4, i64 0, i64 0
  %43 = load i32, i32* %1, align 4
  %44 = sext i32 %43 to i64
  %45 = getelementptr inbounds i32, i32* %42, i64 %44
  %46 = icmp ult i32* %41, %45
  br i1 %46, label %47, label %55

47:                                               ; preds = %40
  %48 = load i32*, i32** %6, align 8
  %49 = getelementptr inbounds i32, i32* %48, i64 1
  %50 = load i32, i32* %49, align 4
  %51 = load i32*, i32** %6, align 8
  store i32 %50, i32* %51, align 4
  br label %52

52:                                               ; preds = %47
  %53 = load i32*, i32** %6, align 8
  %54 = getelementptr inbounds i32, i32* %53, i32 1
  store i32* %54, i32** %6, align 8
  br label %40

55:                                               ; preds = %40
  %56 = load i32, i32* %2, align 4
  %57 = add nsw i32 %56, -1
  store i32 %57, i32* %2, align 4
  %58 = load i32, i32* %1, align 4
  %59 = add nsw i32 %58, -1
  store i32 %59, i32* %1, align 4
  %60 = load i32*, i32** %5, align 8
  %61 = getelementptr inbounds i32, i32* %60, i32 -1
  store i32* %61, i32** %5, align 8
  br label %62

62:                                               ; preds = %55, %33
  br label %63

63:                                               ; preds = %62
  %64 = load i32, i32* %2, align 4
  %65 = add nsw i32 %64, 1
  store i32 %65, i32* %2, align 4
  %66 = load i32*, i32** %5, align 8
  %67 = getelementptr inbounds i32, i32* %66, i32 1
  store i32* %67, i32** %5, align 8
  br label %29

68:                                               ; preds = %29
  %69 = getelementptr inbounds [100000 x i32], [100000 x i32]* %4, i64 0, i64 0
  store i32* %69, i32** %5, align 8
  %70 = load i32*, i32** %5, align 8
  %71 = load i32, i32* %70, align 4
  %72 = call i32 (i8*, ...) @printf(i8* getelementptr inbounds ([3 x i8], [3 x i8]* @.str, i64 0, i64 0), i32 %71)
  store i32 1, i32* %2, align 4
  br label %73

73:                                               ; preds = %84, %68
  %74 = load i32, i32* %2, align 4
  %75 = load i32, i32* %1, align 4
  %76 = icmp slt i32 %74, %75
  br i1 %76, label %77, label %87

77:                                               ; preds = %73
  %78 = load i32*, i32** %5, align 8
  %79 = load i32, i32* %2, align 4
  %80 = sext i32 %79 to i64
  %81 = getelementptr inbounds i32, i32* %78, i64 %80
  %82 = load i32, i32* %81, align 4
  %83 = call i32 (i8*, ...) @printf(i8* getelementptr inbounds ([4 x i8], [4 x i8]* @.str.2, i64 0, i64 0), i32 %82)
  br label %84

84:                                               ; preds = %77
  %85 = load i32, i32* %2, align 4
  %86 = add nsw i32 %85, 1
  store i32 %86, i32* %2, align 4
  br label %73

87:                                               ; preds = %73
  ret void
}

declare dso_local i32 @__isoc99_scanf(i8*, ...) #1

declare dso_local i32 @printf(i8*, ...) #1


!llvm.module.flags = !{!0}
!llvm.ident = !{!1}

!0 = !{i32 1, !"wchar_size", i32 4}
!1 = !{!"clang version 10.0.0-4ubuntu1 "}
