; ModuleID = 'source-C-CXX/41/596.c'
source_filename = "source-C-CXX/41/596.c"
target datalayout = "e-m:e-p270:32:32-p271:32:32-p272:64:64-i64:64-f80:128-n8:16:32:64-S128"
target triple = "x86_64-pc-linux-gnu"

@.str = private unnamed_addr constant [3 x i8] c"%d\00", align 1
@.str.1 = private unnamed_addr constant [4 x i8] c"%d \00", align 1
@.str.2 = private unnamed_addr constant [4 x i8] c" %d\00", align 1

; Function Attrs: nofree nounwind sspstrong uwtable
define dso_local void @main() local_unnamed_addr #0 {
  %1 = alloca i32, align 4
  %2 = alloca i32, align 4
  %3 = alloca [100000 x i32], align 16
  %4 = bitcast i32* %1 to i8*
  call void @llvm.lifetime.start.p0i8(i64 4, i8* nonnull %4) #3
  %5 = bitcast i32* %2 to i8*
  call void @llvm.lifetime.start.p0i8(i64 4, i8* nonnull %5) #3
  %6 = bitcast [100000 x i32]* %3 to i8*
  call void @llvm.lifetime.start.p0i8(i64 400000, i8* nonnull %6) #3
  %7 = call i32 (i8*, ...) @__isoc99_scanf(i8* getelementptr inbounds ([3 x i8], [3 x i8]* @.str, i64 0, i64 0), i32* nonnull %1)
  %8 = load i32, i32* %1, align 4, !tbaa !5
  %9 = icmp sgt i32 %8, 1
  br i1 %9, label %13, label %10

10:                                               ; preds = %0
  %11 = add nsw i32 %8, -1
  %12 = sext i32 %11 to i64
  br label %22

13:                                               ; preds = %0, %13
  %14 = phi i64 [ %17, %13 ], [ 0, %0 ]
  %15 = getelementptr inbounds [100000 x i32], [100000 x i32]* %3, i64 0, i64 %14
  %16 = call i32 (i8*, ...) @__isoc99_scanf(i8* getelementptr inbounds ([4 x i8], [4 x i8]* @.str.1, i64 0, i64 0), i32* nonnull %15)
  %17 = add nuw nsw i64 %14, 1
  %18 = load i32, i32* %1, align 4, !tbaa !5
  %19 = add nsw i32 %18, -1
  %20 = sext i32 %19 to i64
  %21 = icmp slt i64 %17, %20
  br i1 %21, label %13, label %22, !llvm.loop !9

22:                                               ; preds = %13, %10
  %23 = phi i64 [ %12, %10 ], [ %20, %13 ]
  %24 = getelementptr inbounds [100000 x i32], [100000 x i32]* %3, i64 0, i64 %23
  %25 = call i32 (i8*, ...) @__isoc99_scanf(i8* getelementptr inbounds ([3 x i8], [3 x i8]* @.str, i64 0, i64 0), i32* nonnull %24)
  %26 = call i32 (i8*, ...) @__isoc99_scanf(i8* getelementptr inbounds ([3 x i8], [3 x i8]* @.str, i64 0, i64 0), i32* nonnull %2)
  %27 = getelementptr inbounds [100000 x i32], [100000 x i32]* %3, i64 0, i64 0
  %28 = load i32, i32* %1, align 4, !tbaa !5
  %29 = icmp sgt i32 %28, 0
  br i1 %29, label %30, label %61

30:                                               ; preds = %22, %54
  %31 = phi i32 [ %55, %54 ], [ %28, %22 ]
  %32 = phi i32* [ %59, %54 ], [ %27, %22 ]
  %33 = phi i32 [ %58, %54 ], [ 0, %22 ]
  %34 = load i32, i32* %32, align 4, !tbaa !5
  %35 = load i32, i32* %2, align 4, !tbaa !5
  %36 = icmp eq i32 %34, %35
  br i1 %36, label %37, label %54

37:                                               ; preds = %30
  %38 = sext i32 %31 to i64
  %39 = getelementptr inbounds [100000 x i32], [100000 x i32]* %3, i64 0, i64 %38
  %40 = icmp ult i32* %32, %39
  br i1 %40, label %41, label %49

41:                                               ; preds = %37, %41
  %42 = phi i32* [ %43, %41 ], [ %32, %37 ]
  %43 = getelementptr inbounds i32, i32* %42, i64 1
  %44 = load i32, i32* %43, align 4, !tbaa !5
  store i32 %44, i32* %42, align 4, !tbaa !5
  %45 = load i32, i32* %1, align 4, !tbaa !5
  %46 = sext i32 %45 to i64
  %47 = getelementptr inbounds [100000 x i32], [100000 x i32]* %3, i64 0, i64 %46
  %48 = icmp ult i32* %43, %47
  br i1 %48, label %41, label %49, !llvm.loop !11

49:                                               ; preds = %41, %37
  %50 = phi i32 [ %31, %37 ], [ %45, %41 ]
  %51 = add nsw i32 %33, -1
  %52 = add nsw i32 %50, -1
  store i32 %52, i32* %1, align 4, !tbaa !5
  %53 = getelementptr inbounds i32, i32* %32, i64 -1
  br label %54

54:                                               ; preds = %30, %49
  %55 = phi i32 [ %52, %49 ], [ %31, %30 ]
  %56 = phi i32 [ %51, %49 ], [ %33, %30 ]
  %57 = phi i32* [ %53, %49 ], [ %32, %30 ]
  %58 = add nsw i32 %56, 1
  %59 = getelementptr inbounds i32, i32* %57, i64 1
  %60 = icmp slt i32 %58, %55
  br i1 %60, label %30, label %61, !llvm.loop !12

61:                                               ; preds = %54, %22
  %62 = load i32, i32* %27, align 16, !tbaa !5
  %63 = call i32 (i8*, ...) @printf(i8* nonnull dereferenceable(1) getelementptr inbounds ([3 x i8], [3 x i8]* @.str, i64 0, i64 0), i32 %62)
  %64 = load i32, i32* %1, align 4, !tbaa !5
  %65 = icmp sgt i32 %64, 1
  br i1 %65, label %66, label %75

66:                                               ; preds = %61, %66
  %67 = phi i64 [ %71, %66 ], [ 1, %61 ]
  %68 = getelementptr inbounds [100000 x i32], [100000 x i32]* %3, i64 0, i64 %67
  %69 = load i32, i32* %68, align 4, !tbaa !5
  %70 = call i32 (i8*, ...) @printf(i8* nonnull dereferenceable(1) getelementptr inbounds ([4 x i8], [4 x i8]* @.str.2, i64 0, i64 0), i32 %69)
  %71 = add nuw nsw i64 %67, 1
  %72 = load i32, i32* %1, align 4, !tbaa !5
  %73 = sext i32 %72 to i64
  %74 = icmp slt i64 %71, %73
  br i1 %74, label %66, label %75, !llvm.loop !13

75:                                               ; preds = %66, %61
  call void @llvm.lifetime.end.p0i8(i64 400000, i8* nonnull %6) #3
  call void @llvm.lifetime.end.p0i8(i64 4, i8* nonnull %5) #3
  call void @llvm.lifetime.end.p0i8(i64 4, i8* nonnull %4) #3
  ret void
}

; Function Attrs: argmemonly mustprogress nofree nosync nounwind willreturn
declare void @llvm.lifetime.start.p0i8(i64 immarg, i8* nocapture) #1

; Function Attrs: nofree nounwind
declare noundef i32 @__isoc99_scanf(i8* nocapture noundef readonly, ...) local_unnamed_addr #2

; Function Attrs: nofree nounwind
declare noundef i32 @printf(i8* nocapture noundef readonly, ...) local_unnamed_addr #2

; Function Attrs: argmemonly mustprogress nofree nosync nounwind willreturn
declare void @llvm.lifetime.end.p0i8(i64 immarg, i8* nocapture) #1


!llvm.module.flags = !{!0, !1, !2, !3}
!llvm.ident = !{!4}

!0 = !{i32 1, !"wchar_size", i32 4}
!1 = !{i32 7, !"PIC Level", i32 2}
!2 = !{i32 7, !"PIE Level", i32 2}
!3 = !{i32 7, !"uwtable", i32 1}
!4 = !{!"clang version 13.0.0"}
!5 = !{!6, !6, i64 0}
!6 = !{!"int", !7, i64 0}
!7 = !{!"omnipotent char", !8, i64 0}
!8 = !{!"Simple C/C++ TBAA"}
!9 = distinct !{!9, !10}
!10 = !{!"llvm.loop.mustprogress"}
!11 = distinct !{!11, !10}
!12 = distinct !{!12, !10}
!13 = distinct !{!13, !10}
